; Function Attrs: nofree norecurse nosync nounwind memory(argmem: read) uwtable
define range(i32 0, 2) i32 @Abc_NodeConeIsConst0_1(ptr noundef readonly captures(none) %0, i32 noundef %1) local_unnamed_addr #6 {
  %3 = icmp slt i32 %1, 7
  %4 = add nsw i32 %1, -6
  %5 = shl nuw i32 1, %4
  %6 = select i1 %3, i32 1, i32 %5
  %7 = icmp sgt i32 %6, 0
  br i1 %7, label %.lr.ph.preheader, label %._crit_edge

.lr.ph.preheader:                                 ; preds = %2
  %wide.trip.count = zext nneg i32 %6 to i64
  br label %.lr.ph

8:                                                ; preds = %.lr.ph
  %indvars.iv.next = add nuw nsw i64 %indvars.iv, 1
  %exitcond.not = icmp eq i64 %indvars.iv.next, %wide.trip.count
  br i1 %exitcond.not, label %._crit_edge, label %.lr.ph, !llvm.loop !78

.lr.ph:                                           ; preds = %.lr.ph.preheader, %8
  %indvars.iv = phi i64 [ 0, %.lr.ph.preheader ], [ %indvars.iv.next, %8 ]
  %9 = getelementptr inbounds nuw i64, ptr %0, i64 %indvars.iv
  %10 = load i64, ptr %9, align 8, !tbaa !72
  %.not = icmp eq i64 %10, 0
  br i1 %.not, label %8, label %._crit_edge

._crit_edge:                                      ; preds = %.lr.ph, %8, %2
  %.0 = phi i32 [ 1, %2 ], [ 1, %8 ], [ 0, %.lr.ph ]
  ret i32 %.0
}